target datalayout = "e-m:e-p270:32:32-p271:32:32-p272:64:64-i64:64-i128:128-f80:128-n8:16:32:64-S128"
target triple = "x86_64-pc-linux-gnu"

%struct.rb_data_type_struct = type { ptr, %struct.anon, ptr, ptr, i64 }
%struct.anon = type { ptr, ptr, ptr, ptr, [1 x ptr] }

@ossl_evp_pkey_type = constant %struct.rb_data_type_struct { ptr @.str, %struct.anon { ptr null, ptr @ossl_evp_pkey_free, ptr null, ptr null, [1 x ptr] zeroinitializer }, ptr null, ptr null, i64 33 }, align 8
@ePKeyError = global i64 0, align 8
@.str.3 = private unnamed_addr constant [19 x i8] c"parameters missing\00", align 1
@rb_eRuntimeError = external global i64, align 8
@.str.4 = private unnamed_addr constant [25 x i8] c"PKEY wasn't initialized!\00", align 1
@.str.8 = private unnamed_addr constant [8 x i8] c"BIO_new\00", align 1
@.str.11 = private unnamed_addr constant [15 x i8] c"i2d_PUBKEY_bio\00", align 1
@.str.12 = private unnamed_addr constant [21 x i8] c"PEM_write_bio_PUBKEY\00", align 1

; Function Attrs: nounwind sspstrong uwtable
define void @ossl_pkey_check_public_key(ptr noundef %0) #0 {
  %2 = alloca ptr, align 8
  store ptr %0, ptr %2, align 8, !tbaa !10
  %3 = load ptr, ptr %2, align 8, !tbaa !10
  %4 = call i32 @EVP_PKEY_missing_parameters(ptr noundef %3)
  %5 = icmp ne i32 %4, 0
  br i1 %5, label %6, label %8

6:                                                ; preds = %1
  %7 = load i64, ptr @ePKeyError, align 8, !tbaa !12
  call void (i64, ptr, ...) @ossl_raise(i64 noundef %7, ptr noundef @.str.3) #20
  unreachable

8:                                                ; preds = %1
  ret void
}

; Function Attrs: nounwind sspstrong uwtable
define i64 @ossl_pkey_export_spki(i64 noundef %0, i32 noundef %1) #0 {
  %3 = alloca i64, align 8
  %4 = alloca i32, align 4
  %5 = alloca ptr, align 8
  %6 = alloca ptr, align 8
  store i64 %0, ptr %3, align 8, !tbaa !12
  store i32 %1, ptr %4, align 4, !tbaa !14
  call void @llvm.lifetime.start.p0(i64 8, ptr %5) #19
  call void @llvm.lifetime.start.p0(i64 8, ptr %6) #19
  br label %7

7:                                                ; preds = %2
  %8 = load i64, ptr %3, align 8, !tbaa !12
  %9 = call ptr @rb_check_typeddata(i64 noundef %8, ptr noundef @ossl_evp_pkey_type)
  store ptr %9, ptr %5, align 8, !tbaa !10
  %10 = load ptr, ptr %5, align 8, !tbaa !10
  %11 = icmp ne ptr %10, null
  br i1 %11, label %14, label %12

12:                                               ; preds = %7
  %13 = load i64, ptr @rb_eRuntimeError, align 8, !tbaa !12
  call void (i64, ptr, ...) @rb_raise(i64 noundef %13, ptr noundef @.str.4) #20
  unreachable

14:                                               ; preds = %7
  br label %15

15:                                               ; preds = %14
  br label %16

16:                                               ; preds = %15
  %17 = load ptr, ptr %5, align 8, !tbaa !10
  call void @ossl_pkey_check_public_key(ptr noundef %17)
  %18 = call ptr @BIO_s_mem()
  %19 = call ptr @BIO_new(ptr noundef %18)
  store ptr %19, ptr %6, align 8, !tbaa !20
  %20 = load ptr, ptr %6, align 8, !tbaa !20
  %21 = icmp ne ptr %20, null
  br i1 %21, label %24, label %22

22:                                               ; preds = %16
  %23 = load i64, ptr @ePKeyError, align 8, !tbaa !12
  call void (i64, ptr, ...) @ossl_raise(i64 noundef %23, ptr noundef @.str.8) #20
  unreachable

24:                                               ; preds = %16
  %25 = load i32, ptr %4, align 4, !tbaa !14
  %26 = icmp ne i32 %25, 0
  br i1 %26, label %27, label %37

27:                                               ; preds = %24
  %28 = load ptr, ptr %6, align 8, !tbaa !20
  %29 = load ptr, ptr %5, align 8, !tbaa !10
  %30 = call i32 @i2d_PUBKEY_bio(ptr noundef %28, ptr noundef %29)
  %31 = icmp ne i32 %30, 0
  br i1 %31, label %36, label %32

32:                                               ; preds = %27
  %33 = load ptr, ptr %6, align 8, !tbaa !20
  %34 = call i32 @BIO_free(ptr noundef %33)
  %35 = load i64, ptr @ePKeyError, align 8, !tbaa !12
  call void (i64, ptr, ...) @ossl_raise(i64 noundef %35, ptr noundef @.str.11) #20
  unreachable

36:                                               ; preds = %27
  br label %47

37:                                               ; preds = %24
  %38 = load ptr, ptr %6, align 8, !tbaa !20
  %39 = load ptr, ptr %5, align 8, !tbaa !10
  %40 = call i32 @PEM_write_bio_PUBKEY(ptr noundef %38, ptr noundef %39)
  %41 = icmp ne i32 %40, 0
  br i1 %41, label %46, label %42

42:                                               ; preds = %37
  %43 = load ptr, ptr %6, align 8, !tbaa !20
  %44 = call i32 @BIO_free(ptr noundef %43)
  %45 = load i64, ptr @ePKeyError, align 8, !tbaa !12
  call void (i64, ptr, ...) @ossl_raise(i64 noundef %45, ptr noundef @.str.12) #20
  unreachable

46:                                               ; preds = %37
  br label %47

47:                                               ; preds = %46, %36
  %48 = load ptr, ptr %6, align 8, !tbaa !20
  %49 = call i64 @ossl_membio2str(ptr noundef %48)
  call void @llvm.lifetime.end.p0(i64 8, ptr %6) #19
  call void @llvm.lifetime.end.p0(i64 8, ptr %5) #19
  ret i64 %49
}