; Function Attrs: nounwind sspstrong uwtable
define i64 @ossl_pkey_export_spki(i64 noundef %0, i32 noundef %1) local_unnamed_addr #0 {
  %3 = tail call ptr @rb_check_typeddata(i64 noundef %0, ptr noundef nonnull @ossl_evp_pkey_type) #8
  %.not = icmp eq ptr %3, null
  br i1 %.not, label %4, label %6

4:                                                ; preds = %2
  %5 = load i64, ptr @rb_eRuntimeError, align 8, !tbaa !10
  tail call void (i64, ptr, ...) @rb_raise(i64 noundef %5, ptr noundef nonnull @.str.4) #9
  unreachable

6:                                                ; preds = %2
  %7 = tail call i32 @EVP_PKEY_missing_parameters(ptr noundef nonnull %3) #8
  %.not.i = icmp eq i32 %7, 0
  br i1 %.not.i, label %ossl_pkey_check_public_key.exit, label %8

8:                                                ; preds = %6
  %9 = load i64, ptr @ePKeyError, align 8, !tbaa !10
  tail call void (i64, ptr, ...) @ossl_raise(i64 noundef %9, ptr noundef nonnull @.str.3) #9
  unreachable

ossl_pkey_check_public_key.exit:                  ; preds = %6
  %10 = tail call ptr @BIO_s_mem() #8
  %11 = tail call ptr @BIO_new(ptr noundef %10) #8
  %.not12 = icmp eq ptr %11, null
  br i1 %.not12, label %12, label %14

12:                                               ; preds = %ossl_pkey_check_public_key.exit
  %13 = load i64, ptr @ePKeyError, align 8, !tbaa !10
  tail call void (i64, ptr, ...) @ossl_raise(i64 noundef %13, ptr noundef nonnull @.str.8) #9
  unreachable

14:                                               ; preds = %ossl_pkey_check_public_key.exit
  %.not13 = icmp eq i32 %1, 0
  br i1 %.not13, label %20, label %15

15:                                               ; preds = %14
  %16 = tail call i32 @i2d_PUBKEY_bio(ptr noundef nonnull %11, ptr noundef nonnull %3) #8
  %.not15 = icmp eq i32 %16, 0
  br i1 %.not15, label %17, label %25

17:                                               ; preds = %15
  %18 = tail call i32 @BIO_free(ptr noundef nonnull %11) #8
  %19 = load i64, ptr @ePKeyError, align 8, !tbaa !10
  tail call void (i64, ptr, ...) @ossl_raise(i64 noundef %19, ptr noundef nonnull @.str.11) #9
  unreachable

20:                                               ; preds = %14
  %21 = tail call i32 @PEM_write_bio_PUBKEY(ptr noundef nonnull %11, ptr noundef nonnull %3) #8
  %.not14 = icmp eq i32 %21, 0
  br i1 %.not14, label %22, label %25

22:                                               ; preds = %20
  %23 = tail call i32 @BIO_free(ptr noundef nonnull %11) #8
  %24 = load i64, ptr @ePKeyError, align 8, !tbaa !10
  tail call void (i64, ptr, ...) @ossl_raise(i64 noundef %24, ptr noundef nonnull @.str.12) #9
  unreachable

25:                                               ; preds = %20, %15
  %26 = tail call i64 @ossl_membio2str(ptr noundef nonnull %11) #8
  ret i64 %26
}